target datalayout = "e-m:e-p270:32:32-p271:32:32-p272:64:64-i64:64-i128:128-f80:128-n8:16:32:64-S128"
target triple = "x86_64-pc-linux-gnu"

%struct.dt_pthread_mutex_t = type { %union.pthread_mutex_t }
%union.pthread_mutex_t = type { %struct.__pthread_mutex_s }
%struct.__pthread_mutex_s = type { i32, i32, i32, i32, i32, i16, i16, %struct.__pthread_internal_list }
%struct.__pthread_internal_list = type { ptr, ptr }
%struct.dt_mipmap_cache_t = type { [11 x i32], [11 x i32], [11 x i64], %struct.dt_mipmap_cache_one_t, %struct.dt_mipmap_cache_one_t, %struct.dt_mipmap_cache_one_t, [4096 x i8] }
%struct.dt_mipmap_cache_one_t = type { %struct.dt_cache_t, i64, i64, i64, i64, i64 }
%struct.dt_cache_t = type { %struct.dt_pthread_mutex_t, i64, i64, i64, ptr, ptr, ptr, ptr, ptr, ptr }

; Function Attrs: nounwind uwtable
define void @dt_mipmap_cache_cleanup(ptr noundef %0) #0 {
  %2 = alloca ptr, align 8
  store ptr %0, ptr %2, align 8, !tbaa !50
  %3 = load ptr, ptr %2, align 8, !tbaa !50
  %4 = getelementptr inbounds nuw %struct.dt_mipmap_cache_t, ptr %3, i32 0, i32 3
  %5 = getelementptr inbounds nuw %struct.dt_mipmap_cache_one_t, ptr %4, i32 0, i32 0
  call void @dt_cache_cleanup(ptr noundef %5)
  %6 = load ptr, ptr %2, align 8, !tbaa !50
  %7 = getelementptr inbounds nuw %struct.dt_mipmap_cache_t, ptr %6, i32 0, i32 5
  %8 = getelementptr inbounds nuw %struct.dt_mipmap_cache_one_t, ptr %7, i32 0, i32 0
  call void @dt_cache_cleanup(ptr noundef %8)
  %9 = load ptr, ptr %2, align 8, !tbaa !50
  %10 = getelementptr inbounds nuw %struct.dt_mipmap_cache_t, ptr %9, i32 0, i32 4
  %11 = getelementptr inbounds nuw %struct.dt_mipmap_cache_one_t, ptr %10, i32 0, i32 0
  call void @dt_cache_cleanup(ptr noundef %11)
  ret void
}