; Function Attrs: nounwind uwtable
define void @dt_mipmap_cache_cleanup(ptr noundef %0) local_unnamed_addr #3 {
  %2 = getelementptr inbounds nuw i8, ptr %0, i64 176
  tail call void @dt_cache_cleanup(ptr noundef nonnull %2) #19
  %3 = getelementptr inbounds nuw i8, ptr %0, i64 480
  tail call void @dt_cache_cleanup(ptr noundef nonnull %3) #19
  %4 = getelementptr inbounds nuw i8, ptr %0, i64 328
  tail call void @dt_cache_cleanup(ptr noundef nonnull %4) #19
  ret void
}